; ModuleID = '16/787.c'
source_filename = "16/787.c"
target datalayout = "e-m:e-p270:32:32-p271:32:32-p272:64:64-i64:64-f80:128-n8:16:32:64-S128"
target triple = "x86_64-pc-linux-gnu"

@.str = private unnamed_addr constant [3 x i8] c"%d\00", align 1
@.str.1 = private unnamed_addr constant [6 x i8] c"00001\00", align 1
@.str.2 = private unnamed_addr constant [9 x i8] c"%d%d%d%d\00", align 1
@.str.3 = private unnamed_addr constant [7 x i8] c"%d%d%d\00", align 1
@.str.4 = private unnamed_addr constant [5 x i8] c"%d%d\00", align 1

; Function Attrs: noinline nounwind uwtable
define dso_local i32 @main() #0 {
  %1 = alloca i32, align 4
  %2 = alloca i32, align 4
  %3 = alloca i32, align 4
  %4 = alloca i32, align 4
  %5 = alloca i32, align 4
  %6 = alloca i32, align 4
  %7 = alloca i32, align 4
  store i32 0, i32* %1, align 4
  %8 = call i32 (i8*, ...) @__isoc99_scanf(i8* getelementptr inbounds ([3 x i8], [3 x i8]* @.str, i64 0, i64 0), i32* %2)
  %9 = load i32, i32* %2, align 4
  %10 = sdiv i32 %9, 10000
  store i32 %10, i32* %3, align 4
  %11 = load i32, i32* %2, align 4
  %12 = sdiv i32 %11, 1000
  %13 = load i32, i32* %3, align 4
  %14 = mul nsw i32 10, %13
  %15 = sub nsw i32 %12, %14
  store i32 %15, i32* %4, align 4
  %16 = load i32, i32* %2, align 4
  %17 = sdiv i32 %16, 100
  %18 = load i32, i32* %3, align 4
  %19 = mul nsw i32 100, %18
  %20 = sub nsw i32 %17, %19
  %21 = load i32, i32* %4, align 4
  %22 = mul nsw i32 10, %21
  %23 = sub nsw i32 %20, %22
  store i32 %23, i32* %5, align 4
  %24 = load i32, i32* %2, align 4
  %25 = sdiv i32 %24, 10
  %26 = load i32, i32* %3, align 4
  %27 = mul nsw i32 1000, %26
  %28 = sub nsw i32 %25, %27
  %29 = load i32, i32* %4, align 4
  %30 = mul nsw i32 100, %29
  %31 = sub nsw i32 %28, %30
  %32 = load i32, i32* %5, align 4
  %33 = mul nsw i32 10, %32
  %34 = sub nsw i32 %31, %33
  store i32 %34, i32* %6, align 4
  %35 = load i32, i32* %2, align 4
  %36 = load i32, i32* %3, align 4
  %37 = mul nsw i32 10000, %36
  %38 = sub nsw i32 %35, %37
  %39 = load i32, i32* %4, align 4
  %40 = mul nsw i32 1000, %39
  %41 = sub nsw i32 %38, %40
  %42 = load i32, i32* %5, align 4
  %43 = mul nsw i32 100, %42
  %44 = sub nsw i32 %41, %43
  %45 = load i32, i32* %6, align 4
  %46 = mul nsw i32 10, %45
  %47 = sub nsw i32 %44, %46
  store i32 %47, i32* %7, align 4
  %48 = load i32, i32* %3, align 4
  %49 = icmp ne i32 %48, 0
  br i1 %49, label %50, label %52

50:                                               ; preds = %0
  %51 = call i32 (i8*, ...) @printf(i8* getelementptr inbounds ([6 x i8], [6 x i8]* @.str.1, i64 0, i64 0))
  br label %82

52:                                               ; preds = %0
  %53 = load i32, i32* %4, align 4
  %54 = icmp ne i32 %53, 0
  br i1 %54, label %55, label %61

55:                                               ; preds = %52
  %56 = load i32, i32* %7, align 4
  %57 = load i32, i32* %6, align 4
  %58 = load i32, i32* %5, align 4
  %59 = load i32, i32* %4, align 4
  %60 = call i32 (i8*, ...) @printf(i8* getelementptr inbounds ([9 x i8], [9 x i8]* @.str.2, i64 0, i64 0), i32 %56, i32 %57, i32 %58, i32 %59)
  br label %81

61:                                               ; preds = %52
  %62 = load i32, i32* %5, align 4
  %63 = icmp ne i32 %62, 0
  br i1 %63, label %64, label %69

64:                                               ; preds = %61
  %65 = load i32, i32* %7, align 4
  %66 = load i32, i32* %6, align 4
  %67 = load i32, i32* %5, align 4
  %68 = call i32 (i8*, ...) @printf(i8* getelementptr inbounds ([7 x i8], [7 x i8]* @.str.3, i64 0, i64 0), i32 %65, i32 %66, i32 %67)
  br label %80

69:                                               ; preds = %61
  %70 = load i32, i32* %6, align 4
  %71 = icmp ne i32 %70, 0
  br i1 %71, label %72, label %76

72:                                               ; preds = %69
  %73 = load i32, i32* %7, align 4
  %74 = load i32, i32* %6, align 4
  %75 = call i32 (i8*, ...) @printf(i8* getelementptr inbounds ([5 x i8], [5 x i8]* @.str.4, i64 0, i64 0), i32 %73, i32 %74)
  br label %79

76:                                               ; preds = %69
  %77 = load i32, i32* %7, align 4
  %78 = call i32 (i8*, ...) @printf(i8* getelementptr inbounds ([3 x i8], [3 x i8]* @.str, i64 0, i64 0), i32 %77)
  br label %79

79:                                               ; preds = %76, %72
  br label %80

80:                                               ; preds = %79, %64
  br label %81

81:                                               ; preds = %80, %55
  br label %82

82:                                               ; preds = %81, %50
  %83 = load i32, i32* %1, align 4
  ret i32 %83
}

declare dso_local i32 @__isoc99_scanf(i8*, ...) #1

declare dso_local i32 @printf(i8*, ...) #1


!llvm.module.flags = !{!0}
!llvm.ident = !{!1}

!0 = !{i32 1, !"wchar_size", i32 4}
!1 = !{!"clang version 10.0.0-4ubuntu1 "}
